target datalayout = "e-m:e-p270:32:32-p271:32:32-p272:64:64-i64:64-i128:128-f80:128-n8:16:32:64-S128"
target triple = "x86_64-pc-linux-gnu"

@.str.4 = private unnamed_addr constant [9 x i8] c"RANDFILE\00", align 1
@.str.5 = private unnamed_addr constant [5 x i8] c"HOME\00", align 1
@.str.6 = private unnamed_addr constant [2 x i8] c"/\00", align 1
@.str.7 = private unnamed_addr constant [5 x i8] c".rnd\00", align 1

; Function Attrs: nounwind uwtable
define ptr @RAND_file_name(ptr noundef %0, i64 noundef %1) #0 {
  %3 = alloca ptr, align 8
  %4 = alloca ptr, align 8
  %5 = alloca i64, align 8
  %6 = alloca ptr, align 8
  %7 = alloca i64, align 8
  %8 = alloca i32, align 4
  %9 = alloca i32, align 4
  store ptr %0, ptr %4, align 8, !tbaa !3
  store i64 %1, ptr %5, align 8, !tbaa !8
  call void @llvm.lifetime.start.p0(i64 8, ptr %6) #6
  store ptr null, ptr %6, align 8, !tbaa !3
  call void @llvm.lifetime.start.p0(i64 8, ptr %7) #6
  call void @llvm.lifetime.start.p0(i64 4, ptr %8) #6
  store i32 1, ptr %8, align 4, !tbaa !10
  %10 = call ptr @ossl_safe_getenv(ptr noundef @.str.4)
  store ptr %10, ptr %6, align 8, !tbaa !3
  %11 = icmp eq ptr %10, null
  br i1 %11, label %17, label %12

12:                                               ; preds = %2
  %13 = load ptr, ptr %6, align 8, !tbaa !3
  %14 = load i8, ptr %13, align 1, !tbaa !18
  %15 = sext i8 %14 to i32
  %16 = icmp eq i32 %15, 0
  br i1 %16, label %17, label %19

17:                                               ; preds = %12, %2
  store i32 0, ptr %8, align 4, !tbaa !10
  %18 = call ptr @ossl_safe_getenv(ptr noundef @.str.5)
  store ptr %18, ptr %6, align 8, !tbaa !3
  br label %19

19:                                               ; preds = %17, %12
  %20 = load ptr, ptr %6, align 8, !tbaa !3
  %21 = icmp eq ptr %20, null
  br i1 %21, label %27, label %22

22:                                               ; preds = %19
  %23 = load ptr, ptr %6, align 8, !tbaa !3
  %24 = load i8, ptr %23, align 1, !tbaa !18
  %25 = sext i8 %24 to i32
  %26 = icmp eq i32 %25, 0
  br i1 %26, label %27, label %28

27:                                               ; preds = %22, %19
  store ptr null, ptr %3, align 8
  store i32 1, ptr %9, align 4
  br label %61

28:                                               ; preds = %22
  %29 = load ptr, ptr %6, align 8, !tbaa !3
  %30 = call i64 @strlen(ptr noundef %29) #8
  store i64 %30, ptr %7, align 8, !tbaa !8
  %31 = load i32, ptr %8, align 4, !tbaa !10
  %32 = icmp ne i32 %31, 0
  br i1 %32, label %33, label %43

33:                                               ; preds = %28
  %34 = load i64, ptr %7, align 8, !tbaa !8
  %35 = add i64 %34, 1
  %36 = load i64, ptr %5, align 8, !tbaa !8
  %37 = icmp uge i64 %35, %36
  br i1 %37, label %38, label %39

38:                                               ; preds = %33
  store ptr null, ptr %3, align 8
  store i32 1, ptr %9, align 4
  br label %61

39:                                               ; preds = %33
  %40 = load ptr, ptr %4, align 8, !tbaa !3
  %41 = load ptr, ptr %6, align 8, !tbaa !3
  %42 = call ptr @strcpy(ptr noundef %40, ptr noundef %41) #6
  br label %59

43:                                               ; preds = %28
  %44 = load i64, ptr %7, align 8, !tbaa !8
  %45 = add i64 %44, 1
  %46 = add i64 %45, 4
  %47 = add i64 %46, 1
  %48 = load i64, ptr %5, align 8, !tbaa !8
  %49 = icmp uge i64 %47, %48
  br i1 %49, label %50, label %51

50:                                               ; preds = %43
  store ptr null, ptr %3, align 8
  store i32 1, ptr %9, align 4
  br label %61

51:                                               ; preds = %43
  %52 = load ptr, ptr %4, align 8, !tbaa !3
  %53 = load ptr, ptr %6, align 8, !tbaa !3
  %54 = call ptr @strcpy(ptr noundef %52, ptr noundef %53) #6
  %55 = load ptr, ptr %4, align 8, !tbaa !3
  %56 = call ptr @strcat(ptr noundef %55, ptr noundef @.str.6) #6
  %57 = load ptr, ptr %4, align 8, !tbaa !3
  %58 = call ptr @strcat(ptr noundef %57, ptr noundef @.str.7) #6
  br label %59

59:                                               ; preds = %51, %39
  %60 = load ptr, ptr %4, align 8, !tbaa !3
  store ptr %60, ptr %3, align 8
  store i32 1, ptr %9, align 4
  br label %61

61:                                               ; preds = %59, %50, %38, %27
  call void @llvm.lifetime.end.p0(i64 4, ptr %8) #6
  call void @llvm.lifetime.end.p0(i64 8, ptr %7) #6
  call void @llvm.lifetime.end.p0(i64 8, ptr %6) #6
  %62 = load ptr, ptr %3, align 8
  ret ptr %62
}