; Function Attrs: nounwind uwtable
define noundef ptr @RAND_file_name(ptr noundef %0, i64 noundef %1) local_unnamed_addr #0 {
  %3 = tail call ptr @ossl_safe_getenv(ptr noundef nonnull @.str.4) #10
  %4 = icmp eq ptr %3, null
  br i1 %4, label %8, label %5

5:                                                ; preds = %2
  %6 = load i8, ptr %3, align 1, !tbaa !12
  %7 = icmp eq i8 %6, 0
  br i1 %7, label %8, label %13

8:                                                ; preds = %2, %5
  %9 = tail call ptr @ossl_safe_getenv(ptr noundef nonnull @.str.5) #10
  %10 = icmp eq ptr %9, null
  br i1 %10, label %23, label %11

11:                                               ; preds = %8
  %.pr = load i8, ptr %9, align 1, !tbaa !12
  %12 = icmp eq i8 %.pr, 0
  br i1 %12, label %23, label %18

13:                                               ; preds = %5
  %14 = tail call i64 @strlen(ptr noundef nonnull dereferenceable(1) %3) #12
  %15 = add i64 %14, 1
  %.not22 = icmp ult i64 %15, %1
  br i1 %.not22, label %16, label %23

16:                                               ; preds = %13
  %17 = tail call ptr @strcpy(ptr noundef nonnull dereferenceable(1) %0, ptr noundef nonnull dereferenceable(1) %3) #10
  br label %23

18:                                               ; preds = %11
  %19 = tail call i64 @strlen(ptr noundef nonnull dereferenceable(1) %9) #12
  %20 = add i64 %19, 6
  %.not19 = icmp ult i64 %20, %1
  br i1 %.not19, label %21, label %23

21:                                               ; preds = %18
  %22 = tail call ptr @strcpy(ptr noundef nonnull dereferenceable(1) %0, ptr noundef nonnull dereferenceable(1) %9) #10
  %strlen = tail call i64 @strlen(ptr nonnull dereferenceable(1) %0)
  %endptr = getelementptr inbounds i8, ptr %0, i64 %strlen
  store i16 47, ptr %endptr, align 1
  %strlen20 = tail call i64 @strlen(ptr nonnull dereferenceable(1) %0)
  %endptr21 = getelementptr inbounds i8, ptr %0, i64 %strlen20
  tail call void @llvm.memcpy.p0.p0.i64(ptr noundef nonnull align 1 dereferenceable(5) %endptr21, ptr noundef nonnull align 1 dereferenceable(5) @.str.7, i64 5, i1 false)
  br label %23

23:                                               ; preds = %16, %21, %18, %13, %8, %11
  %.016 = phi ptr [ null, %11 ], [ null, %8 ], [ null, %13 ], [ null, %18 ], [ %0, %21 ], [ %0, %16 ]
  ret ptr %.016
}